target datalayout = "e-m:e-p270:32:32-p271:32:32-p272:64:64-i64:64-i128:128-f80:128-n8:16:32:64-S128"
target triple = "x86_64-unknown-linux-gnu"

%"class.folly::Optional" = type { %"struct.folly::Optional<proxygen::HTTP3::ErrorCode>::StorageTriviallyDestructible" }
%"struct.folly::Optional<proxygen::HTTP3::ErrorCode>::StorageTriviallyDestructible" = type <{ %union.anon, i8, [7 x i8] }>
%union.anon = type { i64 }
%"class.proxygen::hq::HQControlCodec" = type { %"class.proxygen::hq::HQUnidirectionalCodec.base", [15 x i8], %"class.proxygen::hq::HQFramedCodec", i8, i8, i8, i8, i8, i64, i64, i64, ptr, [8 x i8] }
%"class.proxygen::hq::HQUnidirectionalCodec.base" = type <{ ptr, i64, i8 }>
%"class.proxygen::hq::HQFramedCodec" = type { %"class.proxygen::HTTPCodec", i64, i8, ptr, %"struct.proxygen::hq::FrameHeader", i8, i8, i64, i8, [7 x i8], %"class.folly::Optional", i64, %"class.folly::Function" }
%"class.proxygen::HTTPCodec" = type { ptr }
%"struct.proxygen::hq::FrameHeader" = type { i64, i64 }
%"class.folly::Function" = type { %"union.folly::detail::function::Data", ptr, ptr }
%"union.folly::detail::function::Data" = type { ptr, [40 x i8] }

; Function Attrs: mustprogress nounwind uwtable
define noundef zeroext i1 @_ZNK8proxygen2hq14HQControlCodec16isWaitingToDrainEv(ptr noundef nonnull align 16 dereferenceable(232) %this) unnamed_addr #5 align 2 {
entry:
  %this.addr = alloca ptr, align 8
  store ptr %this, ptr %this.addr, align 8
  %this1 = load ptr, ptr %this.addr, align 8
  %doubleGoaway_ = getelementptr inbounds %"class.proxygen::hq::HQControlCodec", ptr %this1, i32 0, i32 3
  %0 = load i8, ptr %doubleGoaway_, align 16
  %tobool = trunc i8 %0 to i1
  br i1 %tobool, label %lor.rhs, label %land.lhs.true

land.lhs.true:                                    ; preds = %entry
  %sentGoaway_ = getelementptr inbounds %"class.proxygen::hq::HQControlCodec", ptr %this1, i32 0, i32 4
  %1 = load i8, ptr %sentGoaway_, align 1
  %tobool2 = trunc i8 %1 to i1
  br i1 %tobool2, label %lor.rhs, label %lor.end

lor.rhs:                                          ; preds = %land.lhs.true, %entry
  %doubleGoaway_3 = getelementptr inbounds %"class.proxygen::hq::HQControlCodec", ptr %this1, i32 0, i32 3
  %2 = load i8, ptr %doubleGoaway_3, align 16
  %tobool4 = trunc i8 %2 to i1
  br i1 %tobool4, label %land.lhs.true5, label %land.end

land.lhs.true5:                                   ; preds = %lor.rhs
  %sentGoaway_6 = getelementptr inbounds %"class.proxygen::hq::HQControlCodec", ptr %this1, i32 0, i32 4
  %3 = load i8, ptr %sentGoaway_6, align 1
  %tobool7 = trunc i8 %3 to i1
  br i1 %tobool7, label %land.rhs, label %land.end

land.rhs:                                         ; preds = %land.lhs.true5
  %sentFinalGoaway_ = getelementptr inbounds %"class.proxygen::hq::HQControlCodec", ptr %this1, i32 0, i32 5
  %4 = load i8, ptr %sentFinalGoaway_, align 2
  %tobool8 = trunc i8 %4 to i1
  %lnot = xor i1 %tobool8, true
  br label %land.end

land.end:                                         ; preds = %land.rhs, %land.lhs.true5, %lor.rhs
  %5 = phi i1 [ false, %land.lhs.true5 ], [ false, %lor.rhs ], [ %lnot, %land.rhs ]
  br label %lor.end

lor.end:                                          ; preds = %land.end, %land.lhs.true
  %6 = phi i1 [ true, %land.lhs.true ], [ %5, %land.end ]
  ret i1 %6
}

; Function Attrs: uwtable
define noundef zeroext i1 @_ZThn32_NK8proxygen2hq14HQControlCodec16isWaitingToDrainEv(ptr noundef %this) unnamed_addr #0 align 2 {
entry:
  %this.addr = alloca ptr, align 8
  store ptr %this, ptr %this.addr, align 8
  %this1 = load ptr, ptr %this.addr, align 8
  %0 = getelementptr inbounds i8, ptr %this1, i64 -32
  %call = tail call noundef zeroext i1 @_ZNK8proxygen2hq14HQControlCodec16isWaitingToDrainEv(ptr noundef nonnull align 16 dereferenceable(232) %0)
  ret i1 %call
}