; Function Attrs: mustprogress nofree norecurse nosync nounwind willreturn memory(argmem: read) uwtable
define noundef zeroext i1 @_ZThn32_NK8proxygen2hq14HQControlCodec16isWaitingToDrainEv(ptr nocapture noundef readonly %this) unnamed_addr #10 align 2 {
entry:
  %doubleGoaway_.i = getelementptr inbounds i8, ptr %this, i64 160
  %0 = load <2 x i8>, ptr %doubleGoaway_.i, align 16
  %1 = and <2 x i8> %0, <i8 1, i8 1>
  %2 = icmp eq <2 x i8> %1, zeroinitializer
  %3 = extractelement <2 x i1> %2, i64 0
  %4 = extractelement <2 x i1> %2, i64 1
  %brmerge.i = select i1 %3, i1 true, i1 %4
  %tobool2.not.mux.i = select i1 %3, i1 %4, i1 false
  br i1 %brmerge.i, label %_ZNK8proxygen2hq14HQControlCodec16isWaitingToDrainEv.exit, label %land.rhs.i

land.rhs.i:                                       ; preds = %entry
  %sentFinalGoaway_.i = getelementptr inbounds i8, ptr %this, i64 162
  %5 = load i8, ptr %sentFinalGoaway_.i, align 2
  %6 = and i8 %5, 1
  %tobool8.not.i = icmp eq i8 %6, 0
  br label %_ZNK8proxygen2hq14HQControlCodec16isWaitingToDrainEv.exit

_ZNK8proxygen2hq14HQControlCodec16isWaitingToDrainEv.exit: ; preds = %entry, %land.rhs.i
  %7 = phi i1 [ %tobool8.not.i, %land.rhs.i ], [ %tobool2.not.mux.i, %entry ]
  ret i1 %7
}